	.file	"test.c"
	.text
	.section	.rodata
.LC0:
	.string	"%d\n"
	.text
	.globl	test
	.type	test, @function
test:
.LFB0:
	.cfi_startproc
	pushl	%ebp
	.cfi_def_cfa_offset 8
	.cfi_offset 5, -8
	movl	%esp, %ebp
	.cfi_def_cfa_register 5
	pushl	%ebx
	subl	$20, %esp
	.cfi_offset 3, -12
	call	__x86.get_pc_thunk.bx
	addl	$_GLOBAL_OFFSET_TABLE_, %ebx
	movl	%gs:20, %eax
	movl	%eax, -12(%ebp)
	xorl	%eax, %eax
	movl	$0, -24(%ebp)
	leal	-24(%ebp), %eax
	movl	%eax, -20(%ebp)
	addl	$32, -20(%ebp)
	movl	-20(%ebp), %eax
	movl	(%eax), %eax
	movl	%eax, -16(%ebp)
	movl	$0, -24(%ebp)
	jmp	.L2
.L3:
	movl	-20(%ebp), %eax
	movl	(%eax), %eax
	subl	$8, %esp
	pushl	%eax
	leal	.LC0@GOTOFF(%ebx), %eax
	pushl	%eax
	call	printf@PLT
	addl	$16, %esp
	addl	$4, -20(%ebp)
	movl	-24(%ebp), %eax
	addl	$1, %eax
	movl	%eax, -24(%ebp)
.L2:
	movl	-24(%ebp), %eax
	cmpl	$2, %eax
	jle	.L3
	nop
	movl	-12(%ebp), %eax
	subl	%gs:20, %eax
	je	.L5
	call	__stack_chk_fail_local
.L5:
	movl	-4(%ebp), %ebx
	leave
	.cfi_restore 5
	.cfi_restore 3
	.cfi_def_cfa 4, 4
	ret
	.cfi_endproc
.LFE0:
	.size	test, .-test
	.globl	main
	.type	main, @function
main:
.LFB1:
	.cfi_startproc
	leal	4(%esp), %ecx
	.cfi_def_cfa 1, 0
	andl	$-16, %esp
	pushl	-4(%ecx)
	pushl	%ebp
	movl	%esp, %ebp
	.cfi_escape 0x10,0x5,0x2,0x75,0
	pushl	%ecx
	.cfi_escape 0xf,0x3,0x75,0x7c,0x6
	subl	$4, %esp
	call	__x86.get_pc_thunk.ax
	addl	$_GLOBAL_OFFSET_TABLE_, %eax
	subl	$4, %esp
	pushl	$15
	pushl	$10
	pushl	$5
	call	test
	addl	$16, %esp
	movl	$0, %eax
	movl	-4(%ebp), %ecx
	.cfi_def_cfa 1, 0
	leave
	.cfi_restore 5
	leal	-4(%ecx), %esp
	.cfi_def_cfa 4, 4
	ret
	.cfi_endproc
.LFE1:
	.size	main, .-main
	.section	.text.__x86.get_pc_thunk.ax,"axG",@progbits,__x86.get_pc_thunk.ax,comdat
	.globl	__x86.get_pc_thunk.ax
	.hidden	__x86.get_pc_thunk.ax
	.type	__x86.get_pc_thunk.ax, @function
__x86.get_pc_thunk.ax:
.LFB2:
	.cfi_startproc
	movl	(%esp), %eax
	ret
	.cfi_endproc
.LFE2:
	.section	.text.__x86.get_pc_thunk.bx,"axG",@progbits,__x86.get_pc_thunk.bx,comdat
	.globl	__x86.get_pc_thunk.bx
	.hidden	__x86.get_pc_thunk.bx
	.type	__x86.get_pc_thunk.bx, @function
__x86.get_pc_thunk.bx:
.LFB3:
	.cfi_startproc
	movl	(%esp), %ebx
	ret
	.cfi_endproc
.LFE3:
	.hidden	__stack_chk_fail_local
	.ident	"GCC: (GNU) 12.2.1 20230201"
	.section	.note.GNU-stack,"",@progbits
